target datalayout = "e-m:e-p270:32:32-p271:32:32-p272:64:64-i64:64-i128:128-f80:128-n8:16:32:64-S128"
target triple = "x86_64-pc-linux-gnu"

%struct.darktable_t = type { %struct.dt_codepath_t, i32, i32, ptr, ptr, ptr, ptr, ptr, ptr, ptr, ptr, ptr, ptr, ptr, ptr, ptr, ptr, ptr, ptr, ptr, ptr, ptr, ptr, ptr, ptr, ptr, ptr, ptr, ptr, ptr, [64 x %struct.dt_pthread_mutex_t], %struct.dt_pthread_mutex_t, %struct.dt_pthread_mutex_t, %struct.dt_pthread_mutex_t, %struct.dt_pthread_mutex_t, %struct.dt_pthread_mutex_t, ptr, ptr, ptr, ptr, ptr, ptr, ptr, ptr, ptr, ptr, ptr, ptr, ptr, %struct.dt_lua_state_t, ptr, double, ptr, i32, [47 x i32], i32, i32, ptr, ptr, %struct.dt_sys_resources_t, %struct.dt_backthumb_t, %struct.dt_gimp_t }
%struct.dt_codepath_t = type { i8, [3 x i8] }
%struct.dt_pthread_mutex_t = type { %union.pthread_mutex_t }
%union.pthread_mutex_t = type { %struct.__pthread_mutex_s }
%struct.__pthread_mutex_s = type { i32, i32, i32, i32, i32, i16, i16, %struct.__pthread_internal_list }
%struct.__pthread_internal_list = type { ptr, ptr }
%struct.dt_lua_state_t = type { i32 }
%struct.dt_sys_resources_t = type { i64, i64, ptr, ptr, i32 }
%struct.dt_backthumb_t = type { double, double, i32, i32, i32, i32 }
%struct.dt_gimp_t = type { i32, ptr, ptr, i32, i32 }
%struct.dt_masks_form_t = type { ptr, i32, ptr, [2 x float], [128 x i8], i32, i32 }
%struct.dt_masks_form_gui_t = type { ptr, ptr, ptr, i32, float, float, float, float, float, float, float, float, i32, i32, i32, i32, i32, i32, i32, i32, i32, i32, i32, i32, i32, i32, i32, i32, i32, i32, i32, i32, i32, i32, float, float, i32, i32, i32, i32, i32, i32, ptr, ptr, i32, i32, i64 }
%struct._GList = type { ptr, ptr, ptr }
%struct.dt_masks_point_gradient_t = type { [2 x float], float, float, float, float, i32 }
%struct.dt_masks_form_gui_points_t = type { ptr, i32, ptr, i32, ptr, i32, i32 }

@darktable = external global %struct.darktable_t, align 8
@dt_modifier_shortcuts = external global i32, align 4

; Function Attrs: inlinehint nounwind uwtable
define internal i32 @dt_modifier_is(i32 noundef %0, i32 noundef %1) #7 {
  %3 = alloca i32, align 4
  %4 = alloca i32, align 4
  %5 = alloca i32, align 4
  store i32 %0, ptr %3, align 4, !tbaa !6
  store i32 %1, ptr %4, align 4, !tbaa !6
  call void @llvm.lifetime.start.p0(i64 4, ptr %5) #11
  %6 = call i32 @gtk_accelerator_get_default_mod_mask()
  store i32 %6, ptr %5, align 4, !tbaa !6
  %7 = load i32, ptr %3, align 4, !tbaa !6
  %8 = load i32, ptr @dt_modifier_shortcuts, align 4, !tbaa !6
  %9 = or i32 %7, %8
  %10 = load i32, ptr %5, align 4, !tbaa !6
  %11 = and i32 %9, %10
  %12 = load i32, ptr %4, align 4, !tbaa !6
  %13 = icmp eq i32 %11, %12
  %14 = zext i1 %13 to i32
  call void @llvm.lifetime.end.p0(i64 4, ptr %5) #11
  ret i32 %14
}

; Function Attrs: nounwind uwtable
define internal i32 @_gradient_events_button_pressed(ptr noundef %0, float noundef %1, float noundef %2, double noundef %3, i32 noundef %4, i32 noundef %5, i32 noundef %6, ptr noundef %7, i32 noundef %8, ptr noundef %9, i32 noundef %10) #0 {
  %12 = alloca i32, align 4
  %13 = alloca ptr, align 8
  %14 = alloca float, align 4
  %15 = alloca float, align 4
  %16 = alloca double, align 8
  %17 = alloca i32, align 4
  %18 = alloca i32, align 4
  %19 = alloca i32, align 4
  %20 = alloca ptr, align 8
  %21 = alloca i32, align 4
  %22 = alloca ptr, align 8
  %23 = alloca i32, align 4
  %24 = alloca ptr, align 8
  %25 = alloca ptr, align 8
  %26 = alloca i32, align 4
  %27 = alloca ptr, align 8
  store ptr %0, ptr %13, align 8, !tbaa !60
  store float %1, ptr %14, align 4, !tbaa !29
  store float %2, ptr %15, align 4, !tbaa !29
  store double %3, ptr %16, align 8, !tbaa !63
  store i32 %4, ptr %17, align 4, !tbaa !6
  store i32 %5, ptr %18, align 4, !tbaa !6
  store i32 %6, ptr %19, align 4, !tbaa !6
  store ptr %7, ptr %20, align 8, !tbaa !10
  store i32 %8, ptr %21, align 4, !tbaa !6
  store ptr %9, ptr %22, align 8, !tbaa !17
  store i32 %10, ptr %23, align 4, !tbaa !6
  %28 = load ptr, ptr %22, align 8, !tbaa !17
  %29 = icmp ne ptr %28, null
  br i1 %29, label %31, label %30

30:                                               ; preds = %11
  store i32 0, ptr %12, align 4
  br label %161

31:                                               ; preds = %11
  %32 = load i32, ptr %17, align 4, !tbaa !6
  %33 = icmp eq i32 %32, 1
  br i1 %33, label %34, label %51

34:                                               ; preds = %31
  %35 = load i32, ptr %18, align 4, !tbaa !6
  %36 = icmp eq i32 %35, 5
  br i1 %36, label %37, label %51

37:                                               ; preds = %34
  call void @llvm.lifetime.start.p0(i64 8, ptr %24) #11
  %38 = load ptr, ptr %20, align 8, !tbaa !10
  %39 = getelementptr inbounds nuw %struct.dt_masks_form_t, ptr %38, i32 0, i32 0
  %40 = load ptr, ptr %39, align 8, !tbaa !34
  %41 = getelementptr inbounds nuw %struct._GList, ptr %40, i32 0, i32 0
  %42 = load ptr, ptr %41, align 8, !tbaa !37
  store ptr %42, ptr %24, align 8, !tbaa !39
  %43 = load ptr, ptr %24, align 8, !tbaa !39
  %44 = getelementptr inbounds nuw %struct.dt_masks_point_gradient_t, ptr %43, i32 0, i32 4
  store float 0.000000e+00, ptr %44, align 4, !tbaa !41
  %45 = load ptr, ptr getelementptr inbounds nuw (%struct.darktable_t, ptr @darktable, i32 0, i32 9), align 8, !tbaa !143
  %46 = load ptr, ptr %13, align 8, !tbaa !60
  call void @dt_dev_add_masks_history_item(ptr noundef %45, ptr noundef %46, i32 noundef 1)
  %47 = load ptr, ptr %20, align 8, !tbaa !10
  %48 = load ptr, ptr %22, align 8, !tbaa !17
  %49 = load i32, ptr %23, align 4, !tbaa !6
  %50 = load ptr, ptr %13, align 8, !tbaa !60
  call void @dt_masks_gui_form_create(ptr noundef %47, ptr noundef %48, i32 noundef %49, ptr noundef %50)
  store i32 1, ptr %12, align 4
  call void @llvm.lifetime.end.p0(i64 8, ptr %24) #11
  br label %161

51:                                               ; preds = %34, %31
  %52 = load ptr, ptr %22, align 8, !tbaa !17
  %53 = getelementptr inbounds nuw %struct.dt_masks_form_gui_t, ptr %52, i32 0, i32 39
  %54 = load i32, ptr %53, align 8, !tbaa !21
  %55 = icmp ne i32 %54, 0
  br i1 %55, label %73, label %56

56:                                               ; preds = %51
  %57 = load i32, ptr %19, align 4, !tbaa !6
  %58 = call i32 @dt_modifier_is(i32 noundef %57, i32 noundef 1)
  %59 = icmp ne i32 %58, 0
  br i1 %59, label %60, label %73

60:                                               ; preds = %56
  call void @llvm.lifetime.start.p0(i64 8, ptr %25) #11
  %61 = load ptr, ptr %22, align 8, !tbaa !17
  %62 = getelementptr inbounds nuw %struct.dt_masks_form_gui_t, ptr %61, i32 0, i32 0
  %63 = load ptr, ptr %62, align 8, !tbaa !50
  %64 = load i32, ptr %23, align 4, !tbaa !6
  %65 = call ptr @g_list_nth_data(ptr noundef %63, i32 noundef %64)
  store ptr %65, ptr %25, align 8, !tbaa !51
  %66 = load ptr, ptr %25, align 8, !tbaa !51
  %67 = icmp ne ptr %66, null
  br i1 %67, label %69, label %68

68:                                               ; preds = %60
  store i32 0, ptr %12, align 4
  store i32 1, ptr %26, align 4
  br label %72

69:                                               ; preds = %60
  %70 = load ptr, ptr %22, align 8, !tbaa !17
  %71 = getelementptr inbounds nuw %struct.dt_masks_form_gui_t, ptr %70, i32 0, i32 28
  store i32 1, ptr %71, align 4, !tbaa !151
  store i32 1, ptr %12, align 4
  store i32 1, ptr %26, align 4
  br label %72

72:                                               ; preds = %69, %68
  call void @llvm.lifetime.end.p0(i64 8, ptr %25) #11
  br label %161

73:                                               ; preds = %56, %51
  %74 = load ptr, ptr %22, align 8, !tbaa !17
  %75 = getelementptr inbounds nuw %struct.dt_masks_form_gui_t, ptr %74, i32 0, i32 39
  %76 = load i32, ptr %75, align 8, !tbaa !21
  %77 = icmp ne i32 %76, 0
  br i1 %77, label %127, label %78

78:                                               ; preds = %73
  %79 = load ptr, ptr %22, align 8, !tbaa !17
  %80 = getelementptr inbounds nuw %struct.dt_masks_form_gui_t, ptr %79, i32 0, i32 16
  %81 = load i32, ptr %80, align 4, !tbaa !148
  %82 = icmp eq i32 %81, 1
  br i1 %82, label %83, label %127

83:                                               ; preds = %78
  call void @llvm.lifetime.start.p0(i64 8, ptr %27) #11
  %84 = load ptr, ptr %22, align 8, !tbaa !17
  %85 = getelementptr inbounds nuw %struct.dt_masks_form_gui_t, ptr %84, i32 0, i32 0
  %86 = load ptr, ptr %85, align 8, !tbaa !50
  %87 = load i32, ptr %23, align 4, !tbaa !6
  %88 = call ptr @g_list_nth_data(ptr noundef %86, i32 noundef %87)
  store ptr %88, ptr %27, align 8, !tbaa !51
  %89 = load ptr, ptr %27, align 8, !tbaa !51
  %90 = icmp ne ptr %89, null
  br i1 %90, label %92, label %91

91:                                               ; preds = %83
  store i32 0, ptr %12, align 4
  store i32 1, ptr %26, align 4
  br label %126

92:                                               ; preds = %83
  %93 = load ptr, ptr %22, align 8, !tbaa !17
  %94 = getelementptr inbounds nuw %struct.dt_masks_form_gui_t, ptr %93, i32 0, i32 15
  %95 = load i32, ptr %94, align 8, !tbaa !28
  %96 = icmp ne i32 %95, 0
  br i1 %96, label %97, label %100

97:                                               ; preds = %92
  %98 = load ptr, ptr %22, align 8, !tbaa !17
  %99 = getelementptr inbounds nuw %struct.dt_masks_form_gui_t, ptr %98, i32 0, i32 26
  store i32 1, ptr %99, align 4, !tbaa !144
  br label %103

100:                                              ; preds = %92
  %101 = load ptr, ptr %22, align 8, !tbaa !17
  %102 = getelementptr inbounds nuw %struct.dt_masks_form_gui_t, ptr %101, i32 0, i32 24
  store i32 1, ptr %102, align 4, !tbaa !140
  br label %103

103:                                              ; preds = %100, %97
  %104 = load ptr, ptr %27, align 8, !tbaa !51
  %105 = getelementptr inbounds nuw %struct.dt_masks_form_gui_points_t, ptr %104, i32 0, i32 0
  %106 = load ptr, ptr %105, align 8, !tbaa !53
  %107 = getelementptr inbounds float, ptr %106, i64 0
  %108 = load float, ptr %107, align 4, !tbaa !29
  %109 = load ptr, ptr %22, align 8, !tbaa !17
  %110 = getelementptr inbounds nuw %struct.dt_masks_form_gui_t, ptr %109, i32 0, i32 4
  %111 = load float, ptr %110, align 4, !tbaa !145
  %112 = fsub reassoc nsz arcp contract afn float %108, %111
  %113 = load ptr, ptr %22, align 8, !tbaa !17
  %114 = getelementptr inbounds nuw %struct.dt_masks_form_gui_t, ptr %113, i32 0, i32 6
  store float %112, ptr %114, align 4, !tbaa !141
  %115 = load ptr, ptr %27, align 8, !tbaa !51
  %116 = getelementptr inbounds nuw %struct.dt_masks_form_gui_points_t, ptr %115, i32 0, i32 0
  %117 = load ptr, ptr %116, align 8, !tbaa !53
  %118 = getelementptr inbounds float, ptr %117, i64 1
  %119 = load float, ptr %118, align 4, !tbaa !29
  %120 = load ptr, ptr %22, align 8, !tbaa !17
  %121 = getelementptr inbounds nuw %struct.dt_masks_form_gui_t, ptr %120, i32 0, i32 5
  %122 = load float, ptr %121, align 8, !tbaa !146
  %123 = fsub reassoc nsz arcp contract afn float %119, %122
  %124 = load ptr, ptr %22, align 8, !tbaa !17
  %125 = getelementptr inbounds nuw %struct.dt_masks_form_gui_t, ptr %124, i32 0, i32 7
  store float %123, ptr %125, align 8, !tbaa !142
  store i32 1, ptr %12, align 4
  store i32 1, ptr %26, align 4
  br label %126

126:                                              ; preds = %103, %91
  call void @llvm.lifetime.end.p0(i64 8, ptr %27) #11
  br label %161

127:                                              ; preds = %78, %73
  %128 = load ptr, ptr %22, align 8, !tbaa !17
  %129 = getelementptr inbounds nuw %struct.dt_masks_form_gui_t, ptr %128, i32 0, i32 39
  %130 = load i32, ptr %129, align 8, !tbaa !21
  %131 = icmp ne i32 %130, 0
  br i1 %131, label %132, label %138

132:                                              ; preds = %127
  %133 = load i32, ptr %17, align 4, !tbaa !6
  %134 = icmp eq i32 %133, 3
  br i1 %134, label %135, label %138

135:                                              ; preds = %132
  %136 = load ptr, ptr %13, align 8, !tbaa !60
  call void @dt_masks_set_edit_mode(ptr noundef %136, i32 noundef 1)
  %137 = load ptr, ptr %13, align 8, !tbaa !60
  call void @dt_masks_iop_update(ptr noundef %137)
  call void (...) @dt_control_queue_redraw_center()
  store i32 1, ptr %12, align 4
  br label %161

138:                                              ; preds = %132, %127
  %139 = load ptr, ptr %22, align 8, !tbaa !17
  %140 = getelementptr inbounds nuw %struct.dt_masks_form_gui_t, ptr %139, i32 0, i32 39
  %141 = load i32, ptr %140, align 8, !tbaa !21
  %142 = icmp ne i32 %141, 0
  br i1 %142, label %143, label %156

143:                                              ; preds = %138
  %144 = load ptr, ptr %22, align 8, !tbaa !17
  %145 = getelementptr inbounds nuw %struct.dt_masks_form_gui_t, ptr %144, i32 0, i32 4
  %146 = load float, ptr %145, align 4, !tbaa !145
  %147 = load ptr, ptr %22, align 8, !tbaa !17
  %148 = getelementptr inbounds nuw %struct.dt_masks_form_gui_t, ptr %147, i32 0, i32 10
  store float %146, ptr %148, align 4, !tbaa !152
  %149 = load ptr, ptr %22, align 8, !tbaa !17
  %150 = getelementptr inbounds nuw %struct.dt_masks_form_gui_t, ptr %149, i32 0, i32 5
  %151 = load float, ptr %150, align 8, !tbaa !146
  %152 = load ptr, ptr %22, align 8, !tbaa !17
  %153 = getelementptr inbounds nuw %struct.dt_masks_form_gui_t, ptr %152, i32 0, i32 11
  store float %151, ptr %153, align 8, !tbaa !153
  %154 = load ptr, ptr %22, align 8, !tbaa !17
  %155 = getelementptr inbounds nuw %struct.dt_masks_form_gui_t, ptr %154, i32 0, i32 24
  store i32 1, ptr %155, align 4, !tbaa !140
  br label %156

156:                                              ; preds = %143, %138
  br label %157

157:                                              ; preds = %156
  br label %158

158:                                              ; preds = %157
  br label %159

159:                                              ; preds = %158
  br label %160

160:                                              ; preds = %159
  store i32 0, ptr %12, align 4
  br label %161

161:                                              ; preds = %160, %135, %126, %72, %37, %30
  %162 = load i32, ptr %12, align 4
  ret i32 %162
}