; Function Attrs: nounwind uwtable
define internal range(i32 0, 2) i32 @_gradient_events_button_pressed(ptr noundef %0, float %1, float %2, double %3, i32 noundef %4, i32 noundef %5, i32 noundef %6, ptr noundef %7, i32 %8, ptr noundef %9, i32 noundef %10) #0 {
  %.not = icmp eq ptr %9, null
  br i1 %.not, label %.thread52, label %12

12:                                               ; preds = %11
  %13 = icmp eq i32 %4, 1
  %14 = icmp eq i32 %5, 5
  %or.cond = and i1 %13, %14
  br i1 %or.cond, label %15, label %20

15:                                               ; preds = %12
  %16 = load ptr, ptr %7, align 8, !tbaa !19
  %17 = load ptr, ptr %16, align 8, !tbaa !22
  %18 = getelementptr inbounds nuw i8, ptr %17, i64 20
  store float 0.000000e+00, ptr %18, align 4, !tbaa !24
  %19 = load ptr, ptr getelementptr inbounds nuw (i8, ptr @darktable, i64 64), align 8, !tbaa !122
  tail call void @dt_dev_add_masks_history_item(ptr noundef %19, ptr noundef %0, i32 noundef 1) #13
  tail call void @dt_masks_gui_form_create(ptr noundef nonnull %7, ptr noundef nonnull %9, i32 noundef %10, ptr noundef %0) #13
  br label %.thread52

20:                                               ; preds = %12
  %21 = getelementptr inbounds nuw i8, ptr %9, i64 168
  %22 = load i32, ptr %21, align 8, !tbaa !6
  %.not45 = icmp eq i32 %22, 0
  br i1 %.not45, label %23, label %.thread

23:                                               ; preds = %20
  %24 = tail call i32 @gtk_accelerator_get_default_mod_mask() #13
  %25 = load i32, ptr @dt_modifier_shortcuts, align 4, !tbaa !30
  %26 = or i32 %25, %6
  %27 = and i32 %26, %24
  %.not54 = icmp eq i32 %27, 1
  br i1 %.not54, label %28, label %33

28:                                               ; preds = %23
  %29 = load ptr, ptr %9, align 8, !tbaa !32
  %30 = tail call ptr @g_list_nth_data(ptr noundef %29, i32 noundef %10) #13
  %.not47 = icmp eq ptr %30, null
  br i1 %.not47, label %.thread52, label %31

31:                                               ; preds = %28
  %32 = getelementptr inbounds nuw i8, ptr %9, i64 124
  store i32 1, ptr %32, align 4, !tbaa !157
  br label %.thread52

33:                                               ; preds = %23
  %.pr = load i32, ptr %21, align 8, !tbaa !6
  %.not48 = icmp eq i32 %.pr, 0
  br i1 %.not48, label %34, label %.thread

34:                                               ; preds = %33
  %35 = getelementptr inbounds nuw i8, ptr %9, i64 76
  %36 = load i32, ptr %35, align 4, !tbaa !154
  %37 = icmp eq i32 %36, 1
  br i1 %37, label %38, label %.thread52

38:                                               ; preds = %34
  %39 = load ptr, ptr %9, align 8, !tbaa !32
  %40 = tail call ptr @g_list_nth_data(ptr noundef %39, i32 noundef %10) #13
  %.not49 = icmp eq ptr %40, null
  br i1 %.not49, label %.thread52, label %41

41:                                               ; preds = %38
  %42 = getelementptr inbounds nuw i8, ptr %9, i64 72
  %43 = load i32, ptr %42, align 8, !tbaa !18
  %.not50 = icmp eq i32 %43, 0
  %. = select i1 %.not50, i64 108, i64 116
  %44 = getelementptr inbounds nuw i8, ptr %9, i64 %.
  store i32 1, ptr %44, align 4, !tbaa !30
  %45 = load ptr, ptr %40, align 8, !tbaa !33
  %46 = load float, ptr %45, align 4, !tbaa !27
  %47 = getelementptr inbounds nuw i8, ptr %9, i64 28
  %48 = load float, ptr %47, align 4, !tbaa !145
  %49 = fsub reassoc nsz arcp contract afn float %46, %48
  %50 = getelementptr inbounds nuw i8, ptr %9, i64 36
  store float %49, ptr %50, align 4, !tbaa !142
  %51 = getelementptr inbounds nuw i8, ptr %45, i64 4
  %52 = load float, ptr %51, align 4, !tbaa !27
  %53 = getelementptr inbounds nuw i8, ptr %9, i64 32
  %54 = load float, ptr %53, align 8, !tbaa !146
  %55 = fsub reassoc nsz arcp contract afn float %52, %54
  %56 = getelementptr inbounds nuw i8, ptr %9, i64 40
  store float %55, ptr %56, align 8, !tbaa !143
  br label %.thread52

.thread:                                          ; preds = %20, %33
  %57 = icmp eq i32 %4, 3
  br i1 %57, label %58, label %59

58:                                               ; preds = %.thread
  tail call void @dt_masks_set_edit_mode(ptr noundef %0, i32 noundef 1) #13
  tail call void @dt_masks_iop_update(ptr noundef %0) #13
  tail call void (...) @dt_control_queue_redraw_center() #13
  br label %.thread52

59:                                               ; preds = %.thread
  %60 = getelementptr inbounds nuw i8, ptr %9, i64 28
  %61 = load float, ptr %60, align 4, !tbaa !145
  %62 = getelementptr inbounds nuw i8, ptr %9, i64 52
  store float %61, ptr %62, align 4, !tbaa !158
  %63 = getelementptr inbounds nuw i8, ptr %9, i64 32
  %64 = load float, ptr %63, align 8, !tbaa !146
  %65 = getelementptr inbounds nuw i8, ptr %9, i64 56
  store float %64, ptr %65, align 8, !tbaa !159
  %66 = getelementptr inbounds nuw i8, ptr %9, i64 108
  store i32 1, ptr %66, align 4, !tbaa !121
  br label %.thread52

.thread52:                                        ; preds = %34, %59, %41, %38, %31, %28, %11, %58, %15
  %.0 = phi i32 [ 1, %15 ], [ 1, %58 ], [ 0, %11 ], [ 1, %31 ], [ 0, %28 ], [ 1, %41 ], [ 0, %38 ], [ 0, %59 ], [ 0, %34 ]
  ret i32 %.0
}